; Function Attrs: nounwind uwtable
define internal noundef i32 @CVBBDPrecFree(ptr noundef readonly captures(none) %0) #0 {
  %2 = getelementptr inbounds nuw i8, ptr %0, i64 1040
  %3 = load ptr, ptr %2, align 8, !tbaa !3
  %4 = icmp eq ptr %3, null
  br i1 %4, label %27, label %5

5:                                                ; preds = %1
  %6 = getelementptr inbounds nuw i8, ptr %3, i64 240
  %7 = load ptr, ptr %6, align 8, !tbaa !63
  %8 = icmp eq ptr %7, null
  br i1 %8, label %27, label %9

9:                                                ; preds = %5
  %10 = getelementptr inbounds nuw i8, ptr %7, i64 72
  %11 = load ptr, ptr %10, align 8, !tbaa !41
  %12 = tail call i32 @SUNLinSolFree(ptr noundef %11) #9
  %13 = getelementptr inbounds nuw i8, ptr %7, i64 80
  %14 = load ptr, ptr %13, align 8, !tbaa !38
  tail call void @N_VDestroy(ptr noundef %14) #9
  %15 = getelementptr inbounds nuw i8, ptr %7, i64 88
  %16 = load ptr, ptr %15, align 8, !tbaa !39
  tail call void @N_VDestroy(ptr noundef %16) #9
  %17 = getelementptr inbounds nuw i8, ptr %7, i64 96
  %18 = load ptr, ptr %17, align 8, !tbaa !40
  tail call void @N_VDestroy(ptr noundef %18) #9
  %19 = getelementptr inbounds nuw i8, ptr %7, i64 104
  %20 = load ptr, ptr %19, align 8, !tbaa !36
  tail call void @N_VDestroy(ptr noundef %20) #9
  %21 = getelementptr inbounds nuw i8, ptr %7, i64 112
  %22 = load ptr, ptr %21, align 8, !tbaa !37
  tail call void @N_VDestroy(ptr noundef %22) #9
  %23 = getelementptr inbounds nuw i8, ptr %7, i64 64
  %24 = load ptr, ptr %23, align 8, !tbaa !35
  tail call void @SUNMatDestroy(ptr noundef %24) #9
  %25 = getelementptr inbounds nuw i8, ptr %7, i64 56
  %26 = load ptr, ptr %25, align 8, !tbaa !34
  tail call void @SUNMatDestroy(ptr noundef %26) #9
  tail call void @free(ptr noundef nonnull %7) #9
  br label %27

27:                                               ; preds = %5, %1, %9
  ret i32 0
}